; ModuleID = '31/1159.c'
source_filename = "31/1159.c"
target datalayout = "e-m:e-p270:32:32-p271:32:32-p272:64:64-i64:64-f80:128-n8:16:32:64-S128"
target triple = "x86_64-pc-linux-gnu"

%struct.Node = type { [150 x i8], %struct.Node*, %struct.Node* }

@__const.main.std = private unnamed_addr constant [4 x i8] c"end\00", align 1
@.str = private unnamed_addr constant [4 x i8] c"%s\0A\00", align 1

; Function Attrs: noinline nounwind uwtable
define dso_local i32 @main() #0 {
  %1 = alloca i32, align 4
  %2 = alloca [150 x i8], align 16
  %3 = alloca [4 x i8], align 1
  %4 = alloca %struct.Node*, align 8
  %5 = alloca %struct.Node*, align 8
  %6 = alloca %struct.Node*, align 8
  store i32 0, i32* %1, align 4
  %7 = bitcast [4 x i8]* %3 to i8*
  call void @llvm.memcpy.p0i8.p0i8.i64(i8* align 1 %7, i8* align 1 getelementptr inbounds ([4 x i8], [4 x i8]* @__const.main.std, i32 0, i32 0), i64 4, i1 false)
  store %struct.Node* null, %struct.Node** %4, align 8
  br label %8

8:                                                ; preds = %0, %41
  %9 = getelementptr inbounds [150 x i8], [150 x i8]* %2, i64 0, i64 0
  %10 = call i32 (i8*, ...) bitcast (i32 (...)* @gets to i32 (i8*, ...)*)(i8* %9)
  %11 = getelementptr inbounds [150 x i8], [150 x i8]* %2, i64 0, i64 0
  %12 = getelementptr inbounds [4 x i8], [4 x i8]* %3, i64 0, i64 0
  %13 = call i32 @strcmp(i8* %11, i8* %12) #5
  %14 = icmp ne i32 %13, 0
  br i1 %14, label %15, label %40

15:                                               ; preds = %8
  %16 = call noalias i8* @malloc(i64 168) #6
  %17 = bitcast i8* %16 to %struct.Node*
  store %struct.Node* %17, %struct.Node** %5, align 8
  %18 = load %struct.Node*, %struct.Node** %5, align 8
  %19 = getelementptr inbounds %struct.Node, %struct.Node* %18, i32 0, i32 0
  %20 = getelementptr inbounds [150 x i8], [150 x i8]* %19, i64 0, i64 0
  %21 = getelementptr inbounds [150 x i8], [150 x i8]* %2, i64 0, i64 0
  %22 = call i8* @strcpy(i8* %20, i8* %21) #6
  %23 = load %struct.Node*, %struct.Node** %5, align 8
  %24 = getelementptr inbounds %struct.Node, %struct.Node* %23, i32 0, i32 1
  store %struct.Node* null, %struct.Node** %24, align 8
  %25 = load %struct.Node*, %struct.Node** %5, align 8
  %26 = getelementptr inbounds %struct.Node, %struct.Node* %25, i32 0, i32 2
  store %struct.Node* null, %struct.Node** %26, align 8
  %27 = load %struct.Node*, %struct.Node** %4, align 8
  %28 = icmp eq %struct.Node* %27, null
  br i1 %28, label %29, label %31

29:                                               ; preds = %15
  %30 = load %struct.Node*, %struct.Node** %5, align 8
  store %struct.Node* %30, %struct.Node** %4, align 8
  br label %38

31:                                               ; preds = %15
  %32 = load %struct.Node*, %struct.Node** %5, align 8
  %33 = load %struct.Node*, %struct.Node** %6, align 8
  %34 = getelementptr inbounds %struct.Node, %struct.Node* %33, i32 0, i32 1
  store %struct.Node* %32, %struct.Node** %34, align 8
  %35 = load %struct.Node*, %struct.Node** %6, align 8
  %36 = load %struct.Node*, %struct.Node** %5, align 8
  %37 = getelementptr inbounds %struct.Node, %struct.Node* %36, i32 0, i32 2
  store %struct.Node* %35, %struct.Node** %37, align 8
  br label %38

38:                                               ; preds = %31, %29
  %39 = load %struct.Node*, %struct.Node** %5, align 8
  store %struct.Node* %39, %struct.Node** %6, align 8
  br label %41

40:                                               ; preds = %8
  br label %42

41:                                               ; preds = %38
  br label %8

42:                                               ; preds = %40
  br label %43

43:                                               ; preds = %46, %42
  %44 = load %struct.Node*, %struct.Node** %5, align 8
  %45 = icmp ne %struct.Node* %44, null
  br i1 %45, label %46, label %54

46:                                               ; preds = %43
  %47 = load %struct.Node*, %struct.Node** %5, align 8
  %48 = getelementptr inbounds %struct.Node, %struct.Node* %47, i32 0, i32 0
  %49 = getelementptr inbounds [150 x i8], [150 x i8]* %48, i64 0, i64 0
  %50 = call i32 (i8*, ...) @printf(i8* getelementptr inbounds ([4 x i8], [4 x i8]* @.str, i64 0, i64 0), i8* %49)
  %51 = load %struct.Node*, %struct.Node** %5, align 8
  %52 = getelementptr inbounds %struct.Node, %struct.Node* %51, i32 0, i32 2
  %53 = load %struct.Node*, %struct.Node** %52, align 8
  store %struct.Node* %53, %struct.Node** %5, align 8
  br label %43

54:                                               ; preds = %43
  %55 = load i32, i32* %1, align 4
  ret i32 %55
}

; Function Attrs: argmemonly nounwind willreturn
declare void @llvm.memcpy.p0i8.p0i8.i64(i8* noalias nocapture writeonly, i8* noalias nocapture readonly, i64, i1 immarg) #1

declare dso_local i32 @gets(...) #2

; Function Attrs: nounwind readonly
declare dso_local i32 @strcmp(i8*, i8*) #3

; Function Attrs: nounwind
declare dso_local noalias i8* @malloc(i64) #4

; Function Attrs: nounwind
declare dso_local i8* @strcpy(i8*, i8*) #4

declare dso_local i32 @printf(i8*, ...) #2


!llvm.module.flags = !{!0}
!llvm.ident = !{!1}

!0 = !{i32 1, !"wchar_size", i32 4}
!1 = !{!"clang version 10.0.0-4ubuntu1 "}
